; Function Attrs: mustprogress nofree norecurse nosync nounwind willreturn memory(argmem: readwrite) uwtable
define hidden void @_ZN6google8protobuf29DescriptorProto_ReservedRange12InternalSwapEPS1_(ptr noundef nonnull align 8 captures(none) dereferenceable(32) %0, ptr noundef captures(none) %1) local_unnamed_addr #11 align 2 {
  %3 = getelementptr inbounds nuw i8, ptr %0, i64 8
  %4 = getelementptr inbounds nuw i8, ptr %1, i64 8
  %5 = load i64, ptr %3, align 8, !tbaa !53
  %6 = load i64, ptr %4, align 8, !tbaa !53
  store i64 %6, ptr %3, align 8, !tbaa !53
  store i64 %5, ptr %4, align 8, !tbaa !53
  %7 = getelementptr inbounds nuw i8, ptr %0, i64 16
  %8 = getelementptr inbounds nuw i8, ptr %1, i64 16
  %9 = load i32, ptr %7, align 8, !tbaa !58
  %10 = load i32, ptr %8, align 4, !tbaa !58
  store i32 %10, ptr %7, align 8, !tbaa !58
  store i32 %9, ptr %8, align 4, !tbaa !58
  %11 = getelementptr inbounds nuw i8, ptr %0, i64 24
  %12 = getelementptr inbounds nuw i8, ptr %1, i64 24
  %.0.copyload.i.i = load i64, ptr %11, align 8
  %13 = load i64, ptr %12, align 1
  store i64 %13, ptr %11, align 8
  store i64 %.0.copyload.i.i, ptr %12, align 1
  ret void
}